target datalayout = "e-m:e-p270:32:32-p271:32:32-p272:64:64-i64:64-i128:128-f80:128-n8:16:32:64-S128"
target triple = "x86_64-pc-linux-gnu"

%struct.SDL_GUID = type { [16 x i8] }

@.str.3 = private unnamed_addr constant [22 x i8] c"Mapping not available\00", align 1

; Function Attrs: nounwind uwtable
define hidden ptr @SDL_GetGamepadMappingForGUID_REAL(i64 %0, i64 %1) #0 {
  %3 = alloca %struct.SDL_GUID, align 1
  %4 = alloca ptr, align 8
  %5 = alloca ptr, align 8
  %6 = getelementptr inbounds nuw { i64, i64 }, ptr %3, i32 0, i32 0
  store i64 %0, ptr %6, align 1
  %7 = getelementptr inbounds nuw { i64, i64 }, ptr %3, i32 0, i32 1
  store i64 %1, ptr %7, align 1
  call void @llvm.lifetime.start.p0(i64 8, ptr %4) #8
  call void @SDL_LockJoysticks_REAL()
  call void @llvm.lifetime.start.p0(i64 8, ptr %5) #8
  %8 = getelementptr inbounds nuw { i64, i64 }, ptr %3, i32 0, i32 0
  %9 = load i64, ptr %8, align 1
  %10 = getelementptr inbounds nuw { i64, i64 }, ptr %3, i32 0, i32 1
  %11 = load i64, ptr %10, align 1
  %12 = call ptr @SDL_PrivateGetGamepadMappingForGUID(i64 %9, i64 %11, i1 noundef zeroext false)
  store ptr %12, ptr %5, align 8
  %13 = load ptr, ptr %5, align 8
  %14 = icmp ne ptr %13, null
  br i1 %14, label %15, label %22

15:                                               ; preds = %2
  %16 = load ptr, ptr %5, align 8
  %17 = getelementptr inbounds nuw { i64, i64 }, ptr %3, i32 0, i32 0
  %18 = load i64, ptr %17, align 1
  %19 = getelementptr inbounds nuw { i64, i64 }, ptr %3, i32 0, i32 1
  %20 = load i64, ptr %19, align 1
  %21 = call ptr @CreateMappingString(ptr noundef %16, i64 %18, i64 %20)
  store ptr %21, ptr %4, align 8
  br label %24

22:                                               ; preds = %2
  %23 = call zeroext i1 (ptr, ...) @SDL_SetError_REAL(ptr noundef @.str.3)
  store ptr null, ptr %4, align 8
  br label %24

24:                                               ; preds = %22, %15
  call void @llvm.lifetime.end.p0(i64 8, ptr %5) #8
  call void @SDL_UnlockJoysticks_REAL()
  %25 = load ptr, ptr %4, align 8
  call void @llvm.lifetime.end.p0(i64 8, ptr %4) #8
  ret ptr %25
}