; Function Attrs: nounwind uwtable
define hidden ptr @SDL_GetGamepadMappingForGUID_REAL(i64 %0, i64 %1) local_unnamed_addr #0 {
  tail call void @SDL_LockJoysticks_REAL() #10
  %3 = tail call fastcc ptr @SDL_PrivateGetGamepadMappingForGUID(i64 %0, i64 %1, i1 noundef zeroext false)
  %.not = icmp eq ptr %3, null
  br i1 %.not, label %6, label %4

4:                                                ; preds = %2
  %5 = tail call fastcc ptr @CreateMappingString(ptr noundef nonnull %3, i64 %0, i64 %1)
  br label %8

6:                                                ; preds = %2
  %7 = tail call zeroext i1 (ptr, ...) @SDL_SetError_REAL(ptr noundef nonnull @.str.3) #10
  br label %8

8:                                                ; preds = %6, %4
  %.0 = phi ptr [ %5, %4 ], [ null, %6 ]
  tail call void @SDL_UnlockJoysticks_REAL() #10
  ret ptr %.0
}